SF:/Users/alex/repos/victoryforphil/lil-hopps/src/main.rs
FN:5,_RNvCslj5Wu4Tp4GN_9lil_hopps4main
FNDA:0,_RNvCslj5Wu4Tp4GN_9lil_hopps4main
FNF:1
FNH:0
DA:5,0
DA:6,0
DA:7,0
BRF:0
BRH:0
LF:3
LH:0
end_of_record
SF:/Users/alex/repos/victoryforphil/lil-hopps/src/simulation/mod.rs
FN:27,_RNvMNtCslj5Wu4Tp4GN_9lil_hopps10simulationNtB2_10Simulation4step
FN:23,_RNvMNtCslj5Wu4Tp4GN_9lil_hopps10simulationNtB2_10Simulation4init
FN:15,_RNvMNtCslj5Wu4Tp4GN_9lil_hopps10simulationNtB2_10Simulation3new
FNDA:0,_RNvMNtCslj5Wu4Tp4GN_9lil_hopps10simulationNtB2_10Simulation4step
FNDA:0,_RNvMNtCslj5Wu4Tp4GN_9lil_hopps10simulationNtB2_10Simulation4init
FNDA:0,_RNvMNtCslj5Wu4Tp4GN_9lil_hopps10simulationNtB2_10Simulation3new
FNF:3
FNH:0
DA:15,0
DA:16,0
DA:17,0
DA:18,0
DA:19,0
DA:20,0
DA:21,0
DA:23,0
DA:24,0
DA:25,0
DA:27,0
DA:28,0
DA:29,0
BRF:0
BRH:0
LF:13
LH:0
end_of_record
SF:/Users/alex/repos/victoryforphil/lil-hopps/src/simulation/sim_uav.rs
FN:27,_RNvMNtNtCslj5Wu4Tp4GN_9lil_hopps10simulation7sim_uavNtB2_6SimUAV17apply_motor_force
FN:12,_RNvMNtNtCslj5Wu4Tp4GN_9lil_hopps10simulation7sim_uavNtB2_6SimUAV3new
FN:20,_RNvMNtNtCslj5Wu4Tp4GN_9lil_hopps10simulation7sim_uavNtB2_6SimUAV6create
FNDA:0,_RNvMNtNtCslj5Wu4Tp4GN_9lil_hopps10simulation7sim_uavNtB2_6SimUAV17apply_motor_force
FNDA:0,_RNvMNtNtCslj5Wu4Tp4GN_9lil_hopps10simulation7sim_uavNtB2_6SimUAV3new
FNDA:0,_RNvMNtNtCslj5Wu4Tp4GN_9lil_hopps10simulation7sim_uavNtB2_6SimUAV6create
FNF:3
FNH:0
DA:12,0
DA:13,0
DA:14,0
DA:15,0
DA:16,0
DA:17,0
DA:18,0
DA:20,0
DA:21,0
DA:22,0
DA:23,0
DA:24,0
DA:25,0
DA:27,0
DA:28,0
DA:29,0
DA:30,0
DA:31,0
DA:32,0
DA:33,0
DA:36,0
BRF:0
BRH:0
LF:21
LH:0
end_of_record
SF:/Users/alex/repos/victoryforphil/lil-hopps/src/simulation/sim_world.rs
FN:10,_RNvMNtNtCslj5Wu4Tp4GN_9lil_hopps10simulation9sim_worldNtB2_8SimWorld3new
FN:16,_RNvMNtNtCslj5Wu4Tp4GN_9lil_hopps10simulation9sim_worldNtB2_8SimWorld6create
FNDA:0,_RNvMNtNtCslj5Wu4Tp4GN_9lil_hopps10simulation9sim_worldNtB2_8SimWorld3new
FNDA:0,_RNvMNtNtCslj5Wu4Tp4GN_9lil_hopps10simulation9sim_worldNtB2_8SimWorld6create
FNF:2
FNH:0
DA:10,0
DA:11,0
DA:12,0
DA:13,0
DA:14,0
DA:16,0
DA:17,0
DA:18,0
DA:19,0
DA:20,0
BRF:0
BRH:0
LF:10
LH:0
end_of_record
SF:/Users/alex/repos/victoryforphil/lil-hopps/src/types/motors.rs
FN:60,_RNCNvNtNtNtCsaoDM39njmw_9lil_hopps5types6motors5tests21test_calculate_offset0B9_
FN:51,_RNCNvNtNtNtCsaoDM39njmw_9lil_hopps5types6motors5tests8test_new0B9_
FN:36,_RNvMNtNtCsaoDM39njmw_9lil_hopps5types6motorsNtB2_5Motor16calculate_offset
FN:15,_RNvMNtNtCsaoDM39njmw_9lil_hopps5types6motorsNtB2_5Motor3new
FN:52,_RNvNtNtNtCsaoDM39njmw_9lil_hopps5types6motors5testss_8test_new
FN:61,_RNvNtNtNtCsaoDM39njmw_9lil_hopps5types6motors5testss_21test_calculate_offset
FN:36,_RNvMNtNtCslj5Wu4Tp4GN_9lil_hopps5types6motorsNtB2_5Motor16calculate_offset
FN:15,_RNvMNtNtCslj5Wu4Tp4GN_9lil_hopps5types6motorsNtB2_5Motor3new
FN:52,_RNvNtNtNtCslj5Wu4Tp4GN_9lil_hopps5types6motors5testss_8test_new
FN:61,_RNvNtNtNtCslj5Wu4Tp4GN_9lil_hopps5types6motors5testss_21test_calculate_offset
FN:51,_RNCNvNtNtNtCslj5Wu4Tp4GN_9lil_hopps5types6motors5tests8test_new0B9_
FN:60,_RNCNvNtNtNtCslj5Wu4Tp4GN_9lil_hopps5types6motors5tests21test_calculate_offset0B9_
FNDA:1,_RNCNvNtNtNtCsaoDM39njmw_9lil_hopps5types6motors5tests21test_calculate_offset0B9_
FNDA:1,_RNCNvNtNtNtCsaoDM39njmw_9lil_hopps5types6motors5tests8test_new0B9_
FNDA:9,_RNvMNtNtCsaoDM39njmw_9lil_hopps5types6motorsNtB2_5Motor16calculate_offset
FNDA:5,_RNvMNtNtCsaoDM39njmw_9lil_hopps5types6motorsNtB2_5Motor3new
FNDA:1,_RNvNtNtNtCsaoDM39njmw_9lil_hopps5types6motors5testss_8test_new
FNDA:1,_RNvNtNtNtCsaoDM39njmw_9lil_hopps5types6motors5testss_21test_calculate_offset
FNDA:9,_RNvMNtNtCslj5Wu4Tp4GN_9lil_hopps5types6motorsNtB2_5Motor16calculate_offset
FNDA:5,_RNvMNtNtCslj5Wu4Tp4GN_9lil_hopps5types6motorsNtB2_5Motor3new
FNDA:1,_RNvNtNtNtCslj5Wu4Tp4GN_9lil_hopps5types6motors5testss_8test_new
FNDA:1,_RNvNtNtNtCslj5Wu4Tp4GN_9lil_hopps5types6motors5testss_21test_calculate_offset
FNDA:1,_RNCNvNtNtNtCslj5Wu4Tp4GN_9lil_hopps5types6motors5tests8test_new0B9_
FNDA:1,_RNCNvNtNtNtCslj5Wu4Tp4GN_9lil_hopps5types6motors5tests21test_calculate_offset0B9_
FNF:6
FNH:6
DA:15,10
DA:16,10
DA:17,10
DA:18,10
DA:19,10
DA:20,10
DA:21,10
DA:36,18
DA:37,18
DA:38,6
DA:39,4
DA:40,4
DA:41,2
DA:42,2
DA:44,18
DA:51,2
DA:52,2
DA:53,2
DA:54,2
DA:55,2
DA:56,2
DA:57,2
DA:58,2
DA:60,2
DA:61,2
DA:62,2
DA:63,2
DA:65,2
DA:66,2
DA:68,2
DA:69,2
DA:71,2
DA:72,2
DA:73,2
BRF:0
BRH:0
LF:34
LH:34
end_of_record
SF:/Users/alex/repos/victoryforphil/lil-hopps/src/types/movement.rs
FN:10,_RNvMNtNtCsaoDM39njmw_9lil_hopps5types8movementNtB2_8Movement3new
FN:1,_RNvXs0_NtNtCsaoDM39njmw_9lil_hopps5types8movementNtB5_8MovementNtNtCs8wOFr1cHCbA_4core3fmt5Debug3fmt
FN:1,_RNvXs4_NtNtCsaoDM39njmw_9lil_hopps5types8movementNtB5_8MovementNtNtCs8wOFr1cHCbA_4core3cmp9PartialEq2eqB9_
FN:30,_RNvXs_NtNtCsaoDM39njmw_9lil_hopps5types8movementNtB4_8MovementNtNtCs8wOFr1cHCbA_4core3fmt7Display3fmt
FN:19,_RNvMNtNtCsaoDM39njmw_9lil_hopps5types8movementNtB2_8Movement4zero
FN:39,_RNCNvNtNtNtCsaoDM39njmw_9lil_hopps5types8movement5tests17test_movement_new0B9_
FN:52,_RNCNvNtNtNtCsaoDM39njmw_9lil_hopps5types8movement5tests18test_movement_zero0B9_
FN:61,_RNCNvNtNtNtCsaoDM39njmw_9lil_hopps5types8movement5tests21test_movement_display0B9_
FN:53,_RNvNtNtNtCsaoDM39njmw_9lil_hopps5types8movement5testss_18test_movement_zero
FN:62,_RNvNtNtNtCsaoDM39njmw_9lil_hopps5types8movement5testss_21test_movement_display
FN:40,_RNvNtNtNtCsaoDM39njmw_9lil_hopps5types8movement5testss_17test_movement_new
FN:1,_RNvXs1_NtNtCsaoDM39njmw_9lil_hopps5types8movementNtB5_8MovementNtNtCs8wOFr1cHCbA_4core5clone5Clone5cloneB9_
FN:61,_RNCNvNtNtNtCslj5Wu4Tp4GN_9lil_hopps5types8movement5tests21test_movement_display0B9_
FN:39,_RNCNvNtNtNtCslj5Wu4Tp4GN_9lil_hopps5types8movement5tests17test_movement_new0B9_
FN:52,_RNCNvNtNtNtCslj5Wu4Tp4GN_9lil_hopps5types8movement5tests18test_movement_zero0B9_
FN:10,_RNvMNtNtCslj5Wu4Tp4GN_9lil_hopps5types8movementNtB2_8Movement3new
FN:1,_RNvXs0_NtNtCslj5Wu4Tp4GN_9lil_hopps5types8movementNtB5_8MovementNtNtCs8wOFr1cHCbA_4core3fmt5Debug3fmt
FN:30,_RNvXs_NtNtCslj5Wu4Tp4GN_9lil_hopps5types8movementNtB4_8MovementNtNtCs8wOFr1cHCbA_4core3fmt7Display3fmt
FN:1,_RNvXs4_NtNtCslj5Wu4Tp4GN_9lil_hopps5types8movementNtB5_8MovementNtNtCs8wOFr1cHCbA_4core3cmp9PartialEq2eqB9_
FN:19,_RNvMNtNtCslj5Wu4Tp4GN_9lil_hopps5types8movementNtB2_8Movement4zero
FN:40,_RNvNtNtNtCslj5Wu4Tp4GN_9lil_hopps5types8movement5testss_17test_movement_new
FN:53,_RNvNtNtNtCslj5Wu4Tp4GN_9lil_hopps5types8movement5testss_18test_movement_zero
FN:62,_RNvNtNtNtCslj5Wu4Tp4GN_9lil_hopps5types8movement5testss_21test_movement_display
FN:1,_RNvXs1_NtNtCslj5Wu4Tp4GN_9lil_hopps5types8movementNtB5_8MovementNtNtCs8wOFr1cHCbA_4core5clone5Clone5cloneB9_
FNDA:2,_RNvMNtNtCsaoDM39njmw_9lil_hopps5types8movementNtB2_8Movement3new
FNDA:0,_RNvXs0_NtNtCsaoDM39njmw_9lil_hopps5types8movementNtB5_8MovementNtNtCs8wOFr1cHCbA_4core3fmt5Debug3fmt
FNDA:2,_RNvXs4_NtNtCsaoDM39njmw_9lil_hopps5types8movementNtB5_8MovementNtNtCs8wOFr1cHCbA_4core3cmp9PartialEq2eqB9_
FNDA:1,_RNvXs_NtNtCsaoDM39njmw_9lil_hopps5types8movementNtB4_8MovementNtNtCs8wOFr1cHCbA_4core3fmt7Display3fmt
FNDA:6,_RNvMNtNtCsaoDM39njmw_9lil_hopps5types8movementNtB2_8Movement4zero
FNDA:1,_RNCNvNtNtNtCsaoDM39njmw_9lil_hopps5types8movement5tests17test_movement_new0B9_
FNDA:1,_RNCNvNtNtNtCsaoDM39njmw_9lil_hopps5types8movement5tests18test_movement_zero0B9_
FNDA:1,_RNCNvNtNtNtCsaoDM39njmw_9lil_hopps5types8movement5tests21test_movement_display0B9_
FNDA:1,_RNvNtNtNtCsaoDM39njmw_9lil_hopps5types8movement5testss_18test_movement_zero
FNDA:1,_RNvNtNtNtCsaoDM39njmw_9lil_hopps5types8movement5testss_21test_movement_display
FNDA:1,_RNvNtNtNtCsaoDM39njmw_9lil_hopps5types8movement5testss_17test_movement_new
FNDA:0,_RNvXs1_NtNtCsaoDM39njmw_9lil_hopps5types8movementNtB5_8MovementNtNtCs8wOFr1cHCbA_4core5clone5Clone5cloneB9_
FNDA:1,_RNCNvNtNtNtCslj5Wu4Tp4GN_9lil_hopps5types8movement5tests21test_movement_display0B9_
FNDA:1,_RNCNvNtNtNtCslj5Wu4Tp4GN_9lil_hopps5types8movement5tests17test_movement_new0B9_
FNDA:1,_RNCNvNtNtNtCslj5Wu4Tp4GN_9lil_hopps5types8movement5tests18test_movement_zero0B9_
FNDA:2,_RNvMNtNtCslj5Wu4Tp4GN_9lil_hopps5types8movementNtB2_8Movement3new
FNDA:0,_RNvXs0_NtNtCslj5Wu4Tp4GN_9lil_hopps5types8movementNtB5_8MovementNtNtCs8wOFr1cHCbA_4core3fmt5Debug3fmt
FNDA:1,_RNvXs_NtNtCslj5Wu4Tp4GN_9lil_hopps5types8movementNtB4_8MovementNtNtCs8wOFr1cHCbA_4core3fmt7Display3fmt
FNDA:2,_RNvXs4_NtNtCslj5Wu4Tp4GN_9lil_hopps5types8movementNtB5_8MovementNtNtCs8wOFr1cHCbA_4core3cmp9PartialEq2eqB9_
FNDA:6,_RNvMNtNtCslj5Wu4Tp4GN_9lil_hopps5types8movementNtB2_8Movement4zero
FNDA:1,_RNvNtNtNtCslj5Wu4Tp4GN_9lil_hopps5types8movement5testss_17test_movement_new
FNDA:1,_RNvNtNtNtCslj5Wu4Tp4GN_9lil_hopps5types8movement5testss_18test_movement_zero
FNDA:1,_RNvNtNtNtCslj5Wu4Tp4GN_9lil_hopps5types8movement5testss_21test_movement_display
FNDA:0,_RNvXs1_NtNtCslj5Wu4Tp4GN_9lil_hopps5types8movementNtB5_8MovementNtNtCs8wOFr1cHCbA_4core5clone5Clone5cloneB9_
FNF:12
FNH:10
DA:1,4
DA:10,4
DA:11,4
DA:12,4
DA:13,4
DA:14,4
DA:15,4
DA:16,4
DA:17,4
DA:19,12
DA:20,12
DA:21,12
DA:22,12
DA:23,12
DA:24,12
DA:25,12
DA:26,12
DA:30,2
DA:31,2
DA:32,2
DA:39,2
DA:40,2
DA:41,2
DA:42,2
DA:43,2
DA:44,2
DA:45,2
DA:46,2
DA:47,2
DA:48,2
DA:49,2
DA:50,2
DA:52,2
DA:53,2
DA:54,2
DA:55,2
DA:56,2
DA:57,2
DA:58,2
DA:59,2
DA:61,2
DA:62,2
DA:63,2
DA:64,2
DA:65,2
DA:66,2
DA:67,2
DA:68,2
DA:69,2
DA:70,2
BRF:0
BRH:0
LF:52
LH:50
end_of_record
SF:/Users/alex/repos/victoryforphil/lil-hopps/src/types/pose.rs
FN:47,_RNvNtNtNtCsaoDM39njmw_9lil_hopps5types4pose5testss_14test_pose_zero
FN:54,_RNvNtNtNtCsaoDM39njmw_9lil_hopps5types4pose5testss_17test_pose_display
FN:38,_RNvNtNtNtCsaoDM39njmw_9lil_hopps5types4pose5testss_13test_pose_new
FN:1,_RNvXs1_NtNtCsaoDM39njmw_9lil_hopps5types4poseNtB5_4PoseNtNtCs8wOFr1cHCbA_4core5clone5Clone5cloneB9_
FN:9,_RNvXNtNtCsaoDM39njmw_9lil_hopps5types4poseNtB2_4PoseNtNtCs8wOFr1cHCbA_4core3fmt7Display3fmt
FN:1,_RNvXs0_NtNtCsaoDM39njmw_9lil_hopps5types4poseNtB5_4PoseNtNtCs8wOFr1cHCbA_4core3fmt5Debug3fmt
FN:1,_RNvXs4_NtNtCsaoDM39njmw_9lil_hopps5types4poseNtB5_4PoseNtNtCs8wOFr1cHCbA_4core3cmp9PartialEq2eqB9_
FN:16,_RNvMs_NtNtCsaoDM39njmw_9lil_hopps5types4poseNtB4_4Pose3new
FN:25,_RNvMs_NtNtCsaoDM39njmw_9lil_hopps5types4poseNtB4_4Pose4zero
FN:37,_RNCNvNtNtNtCsaoDM39njmw_9lil_hopps5types4pose5tests13test_pose_new0B9_
FN:46,_RNCNvNtNtNtCsaoDM39njmw_9lil_hopps5types4pose5tests14test_pose_zero0B9_
FN:53,_RNCNvNtNtNtCsaoDM39njmw_9lil_hopps5types4pose5tests17test_pose_display0B9_
FN:38,_RNvNtNtNtCslj5Wu4Tp4GN_9lil_hopps5types4pose5testss_13test_pose_new
FN:47,_RNvNtNtNtCslj5Wu4Tp4GN_9lil_hopps5types4pose5testss_14test_pose_zero
FN:54,_RNvNtNtNtCslj5Wu4Tp4GN_9lil_hopps5types4pose5testss_17test_pose_display
FN:1,_RNvXs1_NtNtCslj5Wu4Tp4GN_9lil_hopps5types4poseNtB5_4PoseNtNtCs8wOFr1cHCbA_4core5clone5Clone5cloneB9_
FN:9,_RNvXNtNtCslj5Wu4Tp4GN_9lil_hopps5types4poseNtB2_4PoseNtNtCs8wOFr1cHCbA_4core3fmt7Display3fmt
FN:1,_RNvXs0_NtNtCslj5Wu4Tp4GN_9lil_hopps5types4poseNtB5_4PoseNtNtCs8wOFr1cHCbA_4core3fmt5Debug3fmt
FN:1,_RNvXs4_NtNtCslj5Wu4Tp4GN_9lil_hopps5types4poseNtB5_4PoseNtNtCs8wOFr1cHCbA_4core3cmp9PartialEq2eqB9_
FN:16,_RNvMs_NtNtCslj5Wu4Tp4GN_9lil_hopps5types4poseNtB4_4Pose3new
FN:25,_RNvMs_NtNtCslj5Wu4Tp4GN_9lil_hopps5types4poseNtB4_4Pose4zero
FN:53,_RNCNvNtNtNtCslj5Wu4Tp4GN_9lil_hopps5types4pose5tests17test_pose_display0B9_
FN:37,_RNCNvNtNtNtCslj5Wu4Tp4GN_9lil_hopps5types4pose5tests13test_pose_new0B9_
FN:46,_RNCNvNtNtNtCslj5Wu4Tp4GN_9lil_hopps5types4pose5tests14test_pose_zero0B9_
FNDA:1,_RNvNtNtNtCsaoDM39njmw_9lil_hopps5types4pose5testss_14test_pose_zero
FNDA:1,_RNvNtNtNtCsaoDM39njmw_9lil_hopps5types4pose5testss_17test_pose_display
FNDA:1,_RNvNtNtNtCsaoDM39njmw_9lil_hopps5types4pose5testss_13test_pose_new
FNDA:0,_RNvXs1_NtNtCsaoDM39njmw_9lil_hopps5types4poseNtB5_4PoseNtNtCs8wOFr1cHCbA_4core5clone5Clone5cloneB9_
FNDA:1,_RNvXNtNtCsaoDM39njmw_9lil_hopps5types4poseNtB2_4PoseNtNtCs8wOFr1cHCbA_4core3fmt7Display3fmt
FNDA:0,_RNvXs0_NtNtCsaoDM39njmw_9lil_hopps5types4poseNtB5_4PoseNtNtCs8wOFr1cHCbA_4core3fmt5Debug3fmt
FNDA:2,_RNvXs4_NtNtCsaoDM39njmw_9lil_hopps5types4poseNtB5_4PoseNtNtCs8wOFr1cHCbA_4core3cmp9PartialEq2eqB9_
FNDA:2,_RNvMs_NtNtCsaoDM39njmw_9lil_hopps5types4poseNtB4_4Pose3new
FNDA:6,_RNvMs_NtNtCsaoDM39njmw_9lil_hopps5types4poseNtB4_4Pose4zero
FNDA:1,_RNCNvNtNtNtCsaoDM39njmw_9lil_hopps5types4pose5tests13test_pose_new0B9_
FNDA:1,_RNCNvNtNtNtCsaoDM39njmw_9lil_hopps5types4pose5tests14test_pose_zero0B9_
FNDA:1,_RNCNvNtNtNtCsaoDM39njmw_9lil_hopps5types4pose5tests17test_pose_display0B9_
FNDA:1,_RNvNtNtNtCslj5Wu4Tp4GN_9lil_hopps5types4pose5testss_13test_pose_new
FNDA:1,_RNvNtNtNtCslj5Wu4Tp4GN_9lil_hopps5types4pose5testss_14test_pose_zero
FNDA:1,_RNvNtNtNtCslj5Wu4Tp4GN_9lil_hopps5types4pose5testss_17test_pose_display
FNDA:0,_RNvXs1_NtNtCslj5Wu4Tp4GN_9lil_hopps5types4poseNtB5_4PoseNtNtCs8wOFr1cHCbA_4core5clone5Clone5cloneB9_
FNDA:1,_RNvXNtNtCslj5Wu4Tp4GN_9lil_hopps5types4poseNtB2_4PoseNtNtCs8wOFr1cHCbA_4core3fmt7Display3fmt
FNDA:0,_RNvXs0_NtNtCslj5Wu4Tp4GN_9lil_hopps5types4poseNtB5_4PoseNtNtCs8wOFr1cHCbA_4core3fmt5Debug3fmt
FNDA:2,_RNvXs4_NtNtCslj5Wu4Tp4GN_9lil_hopps5types4poseNtB5_4PoseNtNtCs8wOFr1cHCbA_4core3cmp9PartialEq2eqB9_
FNDA:2,_RNvMs_NtNtCslj5Wu4Tp4GN_9lil_hopps5types4poseNtB4_4Pose3new
FNDA:6,_RNvMs_NtNtCslj5Wu4Tp4GN_9lil_hopps5types4poseNtB4_4Pose4zero
FNDA:1,_RNCNvNtNtNtCslj5Wu4Tp4GN_9lil_hopps5types4pose5tests17test_pose_display0B9_
FNDA:1,_RNCNvNtNtNtCslj5Wu4Tp4GN_9lil_hopps5types4pose5tests13test_pose_new0B9_
FNDA:1,_RNCNvNtNtNtCslj5Wu4Tp4GN_9lil_hopps5types4pose5tests14test_pose_zero0B9_
FNF:12
FNH:10
DA:1,4
DA:9,2
DA:10,2
DA:11,2
DA:12,2
DA:16,4
DA:17,4
DA:18,4
DA:19,4
DA:20,4
DA:21,4
DA:25,12
DA:26,12
DA:27,12
DA:28,12
DA:29,12
DA:30,12
DA:37,2
DA:38,2
DA:39,2
DA:40,2
DA:41,2
DA:42,2
DA:43,2
DA:44,2
DA:46,2
DA:47,2
DA:48,2
DA:49,2
DA:50,2
DA:51,2
DA:53,2
DA:54,2
DA:55,2
DA:56,2
DA:57,2
DA:58,2
DA:59,2
DA:60,2
BRF:0
BRH:0
LF:41
LH:39
end_of_record
SF:/Users/alex/repos/victoryforphil/lil-hopps/src/uav/config.rs
FN:22,_RNCNvNtNtNtCsaoDM39njmw_9lil_hopps3uav6config5tests14test_new_250mm0B9_
FN:1,_RNvXs0_NtNtCsaoDM39njmw_9lil_hopps3uav6configNtB5_9UAVConfigNtNtCs8wOFr1cHCbA_4core5clone5Clone5cloneB9_
FN:1,_RNvXs_NtNtCsaoDM39njmw_9lil_hopps3uav6configNtB4_9UAVConfigNtNtCs8wOFr1cHCbA_4core3fmt5Debug3fmt
FN:9,_RNvMNtNtCsaoDM39njmw_9lil_hopps3uav6configNtB2_9UAVConfig9new_250mm
FN:23,_RNvNtNtNtCsaoDM39njmw_9lil_hopps3uav6config5testss_14test_new_250mm
FN:1,_RNvXs_NtNtCslj5Wu4Tp4GN_9lil_hopps3uav6configNtB4_9UAVConfigNtNtCs8wOFr1cHCbA_4core3fmt5Debug3fmt
FN:1,_RNvXs0_NtNtCslj5Wu4Tp4GN_9lil_hopps3uav6configNtB5_9UAVConfigNtNtCs8wOFr1cHCbA_4core5clone5Clone5cloneB9_
FN:22,_RNCNvNtNtNtCslj5Wu4Tp4GN_9lil_hopps3uav6config5tests14test_new_250mm0B9_
FN:23,_RNvNtNtNtCslj5Wu4Tp4GN_9lil_hopps3uav6config5testss_14test_new_250mm
FN:9,_RNvMNtNtCslj5Wu4Tp4GN_9lil_hopps3uav6configNtB2_9UAVConfig9new_250mm
FNDA:1,_RNCNvNtNtNtCsaoDM39njmw_9lil_hopps3uav6config5tests14test_new_250mm0B9_
FNDA:0,_RNvXs0_NtNtCsaoDM39njmw_9lil_hopps3uav6configNtB5_9UAVConfigNtNtCs8wOFr1cHCbA_4core5clone5Clone5cloneB9_
FNDA:0,_RNvXs_NtNtCsaoDM39njmw_9lil_hopps3uav6configNtB4_9UAVConfigNtNtCs8wOFr1cHCbA_4core3fmt5Debug3fmt
FNDA:3,_RNvMNtNtCsaoDM39njmw_9lil_hopps3uav6configNtB2_9UAVConfig9new_250mm
FNDA:1,_RNvNtNtNtCsaoDM39njmw_9lil_hopps3uav6config5testss_14test_new_250mm
FNDA:0,_RNvXs_NtNtCslj5Wu4Tp4GN_9lil_hopps3uav6configNtB4_9UAVConfigNtNtCs8wOFr1cHCbA_4core3fmt5Debug3fmt
FNDA:0,_RNvXs0_NtNtCslj5Wu4Tp4GN_9lil_hopps3uav6configNtB5_9UAVConfigNtNtCs8wOFr1cHCbA_4core5clone5Clone5cloneB9_
FNDA:1,_RNCNvNtNtNtCslj5Wu4Tp4GN_9lil_hopps3uav6config5tests14test_new_250mm0B9_
FNDA:1,_RNvNtNtNtCslj5Wu4Tp4GN_9lil_hopps3uav6config5testss_14test_new_250mm
FNDA:3,_RNvMNtNtCslj5Wu4Tp4GN_9lil_hopps3uav6configNtB2_9UAVConfig9new_250mm
FNF:5
FNH:3
DA:1,0
DA:9,6
DA:10,6
DA:11,6
DA:12,6
DA:13,6
DA:14,6
DA:15,6
DA:22,2
DA:23,2
DA:24,2
DA:25,2
DA:26,2
DA:27,2
DA:28,2
BRF:0
BRH:0
LF:16
LH:14
end_of_record
SF:/Users/alex/repos/victoryforphil/lil-hopps/src/uav/mod.rs
FN:45,_RNvNtNtCsaoDM39njmw_9lil_hopps3uav5testss_8test_new
FN:44,_RNCNvNtNtCsaoDM39njmw_9lil_hopps3uav5tests8test_new0B7_
FN:34,_RNvMNtCsaoDM39njmw_9lil_hopps3uavNtB2_3UAV7process
FN:18,_RNvMNtCsaoDM39njmw_9lil_hopps3uavNtB2_3UAV3new
FN:44,_RNCNvNtNtCslj5Wu4Tp4GN_9lil_hopps3uav5tests8test_new0B7_
FN:45,_RNvNtNtCslj5Wu4Tp4GN_9lil_hopps3uav5testss_8test_new
FN:34,_RNvMNtCslj5Wu4Tp4GN_9lil_hopps3uavNtB2_3UAV7process
FN:18,_RNvMNtCslj5Wu4Tp4GN_9lil_hopps3uavNtB2_3UAV3new
FNDA:1,_RNvNtNtCsaoDM39njmw_9lil_hopps3uav5testss_8test_new
FNDA:1,_RNCNvNtNtCsaoDM39njmw_9lil_hopps3uav5tests8test_new0B7_
FNDA:0,_RNvMNtCsaoDM39njmw_9lil_hopps3uavNtB2_3UAV7process
FNDA:1,_RNvMNtCsaoDM39njmw_9lil_hopps3uavNtB2_3UAV3new
FNDA:1,_RNCNvNtNtCslj5Wu4Tp4GN_9lil_hopps3uav5tests8test_new0B7_
FNDA:1,_RNvNtNtCslj5Wu4Tp4GN_9lil_hopps3uav5testss_8test_new
FNDA:0,_RNvMNtCslj5Wu4Tp4GN_9lil_hopps3uavNtB2_3UAV7process
FNDA:1,_RNvMNtCslj5Wu4Tp4GN_9lil_hopps3uavNtB2_3UAV3new
FNF:4
FNH:3
DA:18,2
DA:19,2
DA:20,2
DA:22,10
DA:23,8
DA:24,8
DA:26,2
DA:27,2
DA:28,2
DA:29,2
DA:30,2
DA:31,2
DA:32,2
DA:34,0
DA:35,0
DA:36,0
DA:37,0
DA:44,2
DA:45,2
DA:46,2
DA:47,2
DA:49,2
BRF:0
BRH:0
LF:22
LH:18
end_of_record
SF:/Users/alex/repos/victoryforphil/lil-hopps/src/uav/software.rs
FN:8,_RNvMNtNtCsaoDM39njmw_9lil_hopps3uav8softwareNtB2_11UAVSoftware3new
FN:14,_RNvMNtNtCsaoDM39njmw_9lil_hopps3uav8softwareNtB2_11UAVSoftware7process
FN:14,_RNvMNtNtCslj5Wu4Tp4GN_9lil_hopps3uav8softwareNtB2_11UAVSoftware7process
FN:8,_RNvMNtNtCslj5Wu4Tp4GN_9lil_hopps3uav8softwareNtB2_11UAVSoftware3new
FNDA:1,_RNvMNtNtCsaoDM39njmw_9lil_hopps3uav8softwareNtB2_11UAVSoftware3new
FNDA:0,_RNvMNtNtCsaoDM39njmw_9lil_hopps3uav8softwareNtB2_11UAVSoftware7process
FNDA:0,_RNvMNtNtCslj5Wu4Tp4GN_9lil_hopps3uav8softwareNtB2_11UAVSoftware7process
FNDA:1,_RNvMNtNtCslj5Wu4Tp4GN_9lil_hopps3uav8softwareNtB2_11UAVSoftware3new
FNF:2
FNH:1
DA:8,2
DA:9,2
DA:10,2
DA:11,2
DA:12,2
DA:14,0
DA:15,0
DA:16,0
DA:17,0
DA:18,0
BRF:0
BRH:0
LF:10
LH:5
end_of_record
SF:/Users/alex/repos/victoryforphil/lil-hopps/src/uav/state.rs
FN:2,_RNvXs1_NtNtCsaoDM39njmw_9lil_hopps3uav5stateNtB5_8UAVStateNtNtCs8wOFr1cHCbA_4core3cmp9PartialEq2eqB9_
FN:2,_RNvXs_NtNtCsaoDM39njmw_9lil_hopps3uav5stateNtB4_8UAVStateNtNtCs8wOFr1cHCbA_4core3fmt5Debug3fmt
FN:10,_RNvMNtNtCsaoDM39njmw_9lil_hopps3uav5stateNtB2_8UAVState3new
FN:20,_RNvMNtNtCsaoDM39njmw_9lil_hopps3uav5stateNtB2_8UAVState15safe_set_motors
FN:40,_RNvNtNtNtCsaoDM39njmw_9lil_hopps3uav5state5testss_20test_safe_set_motors
FN:32,_RNvNtNtNtCsaoDM39njmw_9lil_hopps3uav5state5testss_8test_new
FN:39,_RNCNvNtNtNtCsaoDM39njmw_9lil_hopps3uav5state5tests20test_safe_set_motors0B9_
FN:31,_RNCNvNtNtNtCsaoDM39njmw_9lil_hopps3uav5state5tests8test_new0B9_
FN:32,_RNvNtNtNtCslj5Wu4Tp4GN_9lil_hopps3uav5state5testss_8test_new
FN:40,_RNvNtNtNtCslj5Wu4Tp4GN_9lil_hopps3uav5state5testss_20test_safe_set_motors
FN:39,_RNCNvNtNtNtCslj5Wu4Tp4GN_9lil_hopps3uav5state5tests20test_safe_set_motors0B9_
FN:31,_RNCNvNtNtNtCslj5Wu4Tp4GN_9lil_hopps3uav5state5tests8test_new0B9_
FN:2,_RNvXs1_NtNtCslj5Wu4Tp4GN_9lil_hopps3uav5stateNtB5_8UAVStateNtNtCs8wOFr1cHCbA_4core3cmp9PartialEq2eqB9_
FN:10,_RNvMNtNtCslj5Wu4Tp4GN_9lil_hopps3uav5stateNtB2_8UAVState3new
FN:20,_RNvMNtNtCslj5Wu4Tp4GN_9lil_hopps3uav5stateNtB2_8UAVState15safe_set_motors
FN:2,_RNvXs_NtNtCslj5Wu4Tp4GN_9lil_hopps3uav5stateNtB4_8UAVStateNtNtCs8wOFr1cHCbA_4core3fmt5Debug3fmt
FNDA:1,_RNvXs1_NtNtCsaoDM39njmw_9lil_hopps3uav5stateNtB5_8UAVStateNtNtCs8wOFr1cHCbA_4core3cmp9PartialEq2eqB9_
FNDA:0,_RNvXs_NtNtCsaoDM39njmw_9lil_hopps3uav5stateNtB4_8UAVStateNtNtCs8wOFr1cHCbA_4core3fmt5Debug3fmt
FNDA:4,_RNvMNtNtCsaoDM39njmw_9lil_hopps3uav5stateNtB2_8UAVState3new
FNDA:1,_RNvMNtNtCsaoDM39njmw_9lil_hopps3uav5stateNtB2_8UAVState15safe_set_motors
FNDA:1,_RNvNtNtNtCsaoDM39njmw_9lil_hopps3uav5state5testss_20test_safe_set_motors
FNDA:1,_RNvNtNtNtCsaoDM39njmw_9lil_hopps3uav5state5testss_8test_new
FNDA:1,_RNCNvNtNtNtCsaoDM39njmw_9lil_hopps3uav5state5tests20test_safe_set_motors0B9_
FNDA:1,_RNCNvNtNtNtCsaoDM39njmw_9lil_hopps3uav5state5tests8test_new0B9_
FNDA:1,_RNvNtNtNtCslj5Wu4Tp4GN_9lil_hopps3uav5state5testss_8test_new
FNDA:1,_RNvNtNtNtCslj5Wu4Tp4GN_9lil_hopps3uav5state5testss_20test_safe_set_motors
FNDA:1,_RNCNvNtNtNtCslj5Wu4Tp4GN_9lil_hopps3uav5state5tests20test_safe_set_motors0B9_
FNDA:1,_RNCNvNtNtNtCslj5Wu4Tp4GN_9lil_hopps3uav5state5tests8test_new0B9_
FNDA:1,_RNvXs1_NtNtCslj5Wu4Tp4GN_9lil_hopps3uav5stateNtB5_8UAVStateNtNtCs8wOFr1cHCbA_4core3cmp9PartialEq2eqB9_
FNDA:4,_RNvMNtNtCslj5Wu4Tp4GN_9lil_hopps3uav5stateNtB2_8UAVState3new
FNDA:1,_RNvMNtNtCslj5Wu4Tp4GN_9lil_hopps3uav5stateNtB2_8UAVState15safe_set_motors
FNDA:0,_RNvXs_NtNtCslj5Wu4Tp4GN_9lil_hopps3uav5stateNtB4_8UAVStateNtNtCs8wOFr1cHCbA_4core3fmt5Debug3fmt
FNF:8
FNH:7
DA:2,2
DA:10,8
DA:11,8
DA:12,8
DA:13,8
DA:14,8
DA:15,8
DA:16,8
DA:20,2
DA:21,10
DA:22,8
DA:23,8
DA:24,2
DA:31,2
DA:32,2
DA:33,2
DA:34,2
DA:35,2
DA:36,2
DA:37,2
DA:39,2
DA:40,2
DA:41,2
DA:42,2
DA:43,2
DA:44,2
BRF:0
BRH:0
LF:27
LH:26
end_of_record
SF:/Users/alex/repos/victoryforphil/lil-hopps/src/viz/mod.rs
FN:12,_RNvMNtCsaoDM39njmw_9lil_hopps3vizNtB2_13Visualization4init
FN:16,_RNvMNtCsaoDM39njmw_9lil_hopps3vizNtB2_13Visualization6render
FN:6,_RNvMNtCsaoDM39njmw_9lil_hopps3vizNtB2_13Visualization3new
FNDA:0,_RNvMNtCsaoDM39njmw_9lil_hopps3vizNtB2_13Visualization4init
FNDA:0,_RNvMNtCsaoDM39njmw_9lil_hopps3vizNtB2_13Visualization6render
FNDA:0,_RNvMNtCsaoDM39njmw_9lil_hopps3vizNtB2_13Visualization3new
FNF:3
FNH:0
DA:6,0
DA:7,0
DA:8,0
DA:9,0
DA:10,0
DA:12,0
DA:13,0
DA:14,0
DA:16,0
DA:17,0
DA:18,0
BRF:0
BRH:0
LF:11
LH:0
end_of_record