SF:/Users/alex/repos/victoryforphil/lil-hopps/flytecode/src/hardware/control_hw.rs
FN:27,_RNvXs_NtNtNtCs86MSqdLtxp_9flytecode8hardware10control_hw5testsNtB4_19MockControlHardwareNtB6_15ControlHardware16get_motor_values
FN:14,_RNvMNtNtNtCs86MSqdLtxp_9flytecode8hardware10control_hw5testsNtB2_19MockControlHardware3new
FN:34,_RNvNtNtNtCs86MSqdLtxp_9flytecode8hardware10control_hw5testss_26test_mock_control_hardware
FN:22,_RNvXs_NtNtNtCs86MSqdLtxp_9flytecode8hardware10control_hw5testsNtB4_19MockControlHardwareNtB6_15ControlHardware16set_motor_values
FN:33,_RNCNvNtNtNtCs86MSqdLtxp_9flytecode8hardware10control_hw5tests26test_mock_control_hardware0B9_
FNDA:1,_RNvXs_NtNtNtCs86MSqdLtxp_9flytecode8hardware10control_hw5testsNtB4_19MockControlHardwareNtB6_15ControlHardware16get_motor_values
FNDA:1,_RNvMNtNtNtCs86MSqdLtxp_9flytecode8hardware10control_hw5testsNtB2_19MockControlHardware3new
FNDA:1,_RNvNtNtNtCs86MSqdLtxp_9flytecode8hardware10control_hw5testss_26test_mock_control_hardware
FNDA:1,_RNvXs_NtNtNtCs86MSqdLtxp_9flytecode8hardware10control_hw5testsNtB4_19MockControlHardwareNtB6_15ControlHardware16set_motor_values
FNDA:1,_RNCNvNtNtNtCs86MSqdLtxp_9flytecode8hardware10control_hw5tests26test_mock_control_hardware0B9_
FNF:5
FNH:5
DA:14,1
DA:15,1
DA:16,1
DA:17,1
DA:18,1
DA:22,1
DA:23,1
DA:24,1
DA:25,1
DA:27,1
DA:28,1
DA:29,1
DA:30,1
DA:33,1
DA:34,1
DA:35,1
DA:36,1
DA:37,1
DA:38,1
DA:40,1
DA:41,1
DA:42,1
DA:43,1
DA:44,1
BRF:0
BRH:0
LF:24
LH:24
end_of_record
SF:/Users/alex/repos/victoryforphil/lil-hopps/flytecode/src/hardware/mod.rs
FN:23,_RNvMNtNtCs86MSqdLtxp_9flytecode8hardware5testsNtB2_12MockHardware3new
FN:57,_RNvNtNtCs86MSqdLtxp_9flytecode8hardware5testss_18test_mock_hardware
FN:31,_RNvXs_NtNtCs86MSqdLtxp_9flytecode8hardware5testsNtB4_12MockHardwareNtB6_8Hardware4init
FN:43,_RNvXs_NtNtCs86MSqdLtxp_9flytecode8hardware5testsNtB4_12MockHardwareNtB6_8Hardware8shutdown
FN:37,_RNvXs_NtNtCs86MSqdLtxp_9flytecode8hardware5testsNtB4_12MockHardwareNtB6_8Hardware6update
FN:49,_RNvXs_NtNtCs86MSqdLtxp_9flytecode8hardware5testsNtB4_12MockHardwareNtB6_8Hardware10get_status
FN:56,_RNCNvNtNtCs86MSqdLtxp_9flytecode8hardware5tests18test_mock_hardware0B7_
FNDA:1,_RNvMNtNtCs86MSqdLtxp_9flytecode8hardware5testsNtB2_12MockHardware3new
FNDA:1,_RNvNtNtCs86MSqdLtxp_9flytecode8hardware5testss_18test_mock_hardware
FNDA:1,_RNvXs_NtNtCs86MSqdLtxp_9flytecode8hardware5testsNtB4_12MockHardwareNtB6_8Hardware4init
FNDA:1,_RNvXs_NtNtCs86MSqdLtxp_9flytecode8hardware5testsNtB4_12MockHardwareNtB6_8Hardware8shutdown
FNDA:1,_RNvXs_NtNtCs86MSqdLtxp_9flytecode8hardware5testsNtB4_12MockHardwareNtB6_8Hardware6update
FNDA:3,_RNvXs_NtNtCs86MSqdLtxp_9flytecode8hardware5testsNtB4_12MockHardwareNtB6_8Hardware10get_status
FNDA:1,_RNCNvNtNtCs86MSqdLtxp_9flytecode8hardware5tests18test_mock_hardware0B7_
FNF:7
FNH:7
DA:23,1
DA:24,1
DA:25,1
DA:26,1
DA:27,1
DA:31,1
DA:32,1
DA:33,1
DA:34,1
DA:35,1
DA:37,1
DA:38,1
DA:39,1
DA:40,1
DA:41,1
DA:43,1
DA:44,1
DA:45,1
DA:46,1
DA:47,1
DA:49,3
DA:50,3
DA:51,3
DA:52,3
DA:53,3
DA:56,1
DA:57,1
DA:58,1
DA:59,1
DA:60,1
DA:61,1
DA:62,1
DA:63,1
DA:64,1
DA:65,1
DA:66,1
DA:67,1
DA:68,1
DA:69,1
DA:70,1
DA:71,1
DA:72,1
BRF:0
BRH:0
LF:42
LH:42
end_of_record
SF:/Users/alex/repos/victoryforphil/lil-hopps/flytecode/src/hardware/navigation_hw.rs
FN:44,_RNvNtNtNtCs86MSqdLtxp_9flytecode8hardware13navigation_hw5testss_29test_mock_navigation_hardware
FN:26,_RNvMNtNtNtCs86MSqdLtxp_9flytecode8hardware13navigation_hw5testsNtB2_22MockNavigationHardware3new
FN:34,_RNvXs_NtNtNtCs86MSqdLtxp_9flytecode8hardware13navigation_hw5testsNtB4_22MockNavigationHardwareNtB6_18NavigationHardware8get_pose
FN:43,_RNCNvNtNtNtCs86MSqdLtxp_9flytecode8hardware13navigation_hw5tests29test_mock_navigation_hardware0B9_
FN:38,_RNvXs_NtNtNtCs86MSqdLtxp_9flytecode8hardware13navigation_hw5testsNtB4_22MockNavigationHardwareNtB6_18NavigationHardware12get_movement
FNDA:1,_RNvNtNtNtCs86MSqdLtxp_9flytecode8hardware13navigation_hw5testss_29test_mock_navigation_hardware
FNDA:1,_RNvMNtNtNtCs86MSqdLtxp_9flytecode8hardware13navigation_hw5testsNtB2_22MockNavigationHardware3new
FNDA:1,_RNvXs_NtNtNtCs86MSqdLtxp_9flytecode8hardware13navigation_hw5testsNtB4_22MockNavigationHardwareNtB6_18NavigationHardware8get_pose
FNDA:1,_RNCNvNtNtNtCs86MSqdLtxp_9flytecode8hardware13navigation_hw5tests29test_mock_navigation_hardware0B9_
FNDA:0,_RNvXs_NtNtNtCs86MSqdLtxp_9flytecode8hardware13navigation_hw5testsNtB4_22MockNavigationHardwareNtB6_18NavigationHardware12get_movement
FNF:5
FNH:4
DA:26,1
DA:27,1
DA:28,1
DA:29,1
DA:30,1
DA:34,1
DA:35,1
DA:36,1
DA:38,0
DA:39,0
DA:40,0
DA:43,1
DA:44,1
DA:45,1
DA:46,1
DA:47,1
DA:48,1
DA:49,1
DA:50,1
DA:51,1
DA:52,1
DA:53,1
DA:54,1
BRF:0
BRH:0
LF:23
LH:20
end_of_record
SF:/Users/alex/repos/victoryforphil/lil-hopps/flytecode/src/hardware/telemetry_hw.rs
FN:33,_RNvNtNtNtCs86MSqdLtxp_9flytecode8hardware12telemetry_hw5testss_28test_mock_telemetry_hardware
FN:22,_RNvXs_NtNtNtCs86MSqdLtxp_9flytecode8hardware12telemetry_hw5testsNtB4_21MockTelemetryHardwareNtB6_16TelemtryHardware12send_message
FN:27,_RNvXs_NtNtNtCs86MSqdLtxp_9flytecode8hardware12telemetry_hw5testsNtB4_21MockTelemetryHardwareNtB6_16TelemtryHardware12get_messages
FN:14,_RNvMNtNtNtCs86MSqdLtxp_9flytecode8hardware12telemetry_hw5testsNtB2_21MockTelemetryHardware3new
FN:32,_RNCNvNtNtNtCs86MSqdLtxp_9flytecode8hardware12telemetry_hw5tests28test_mock_telemetry_hardware0B9_
FNDA:1,_RNvNtNtNtCs86MSqdLtxp_9flytecode8hardware12telemetry_hw5testss_28test_mock_telemetry_hardware
FNDA:1,_RNvXs_NtNtNtCs86MSqdLtxp_9flytecode8hardware12telemetry_hw5testsNtB4_21MockTelemetryHardwareNtB6_16TelemtryHardware12send_message
FNDA:1,_RNvXs_NtNtNtCs86MSqdLtxp_9flytecode8hardware12telemetry_hw5testsNtB4_21MockTelemetryHardwareNtB6_16TelemtryHardware12get_messages
FNDA:1,_RNvMNtNtNtCs86MSqdLtxp_9flytecode8hardware12telemetry_hw5testsNtB2_21MockTelemetryHardware3new
FNDA:1,_RNCNvNtNtNtCs86MSqdLtxp_9flytecode8hardware12telemetry_hw5tests28test_mock_telemetry_hardware0B9_
FNF:5
FNH:5
DA:14,1
DA:15,1
DA:16,1
DA:17,1
DA:18,1
DA:22,1
DA:23,1
DA:24,1
DA:25,1
DA:27,1
DA:28,1
DA:29,1
DA:32,1
DA:33,1
DA:34,1
DA:35,1
DA:36,1
DA:37,1
DA:39,1
DA:40,1
DA:41,1
DA:42,1
DA:43,1
BRF:0
BRH:0
LF:23
LH:23
end_of_record
SF:/Users/alex/repos/victoryforphil/lil-hopps/flytecode/src/software/runner.rs
FN:6,_RNvXs_NtNtCs86MSqdLtxp_9flytecode8software6runnerNtB4_10TaskStatusNtNtCsiGDQiEYPR0L_4core5clone5Clone5cloneB8_
FN:6,_RNvXs0_NtNtCs86MSqdLtxp_9flytecode8software6runnerNtB5_10TaskStatusNtNtCsiGDQiEYPR0L_4core3fmt5Debug3fmt
FN:27,_RNvMNtNtCs86MSqdLtxp_9flytecode8software6runnerINtB2_10TaskRunnerpE15new_task_runnerB6_
FNDA:0,_RNvXs_NtNtCs86MSqdLtxp_9flytecode8software6runnerNtB4_10TaskStatusNtNtCsiGDQiEYPR0L_4core5clone5Clone5cloneB8_
FNDA:0,_RNvXs0_NtNtCs86MSqdLtxp_9flytecode8software6runnerNtB5_10TaskStatusNtNtCsiGDQiEYPR0L_4core3fmt5Debug3fmt
FNDA:0,_RNvMNtNtCs86MSqdLtxp_9flytecode8software6runnerINtB2_10TaskRunnerpE15new_task_runnerB6_
FNF:3
FNH:0
DA:6,0
DA:27,0
DA:28,0
DA:29,0
DA:30,0
DA:31,0
DA:32,0
BRF:0
BRH:0
LF:8
LH:0
end_of_record
SF:/Users/alex/repos/victoryforphil/lil-hopps/flytecode/src/software/task_groups/mod.rs
FN:118,_RNvXs_NtNtNtCs86MSqdLtxp_9flytecode8software11task_groups5testsNtB4_8TestTaskINtNtB8_5tasks7UAVTaskNtB4_9TestStateE6update
FN:91,_RNvMNtNtNtCs86MSqdLtxp_9flytecode8software11task_groups5testsNtB2_8TestTask3new
FN:124,_RNvXs_NtNtNtCs86MSqdLtxp_9flytecode8software11task_groups5testsNtB4_8TestTaskINtNtB8_5tasks7UAVTaskNtB4_9TestStateE8shutdown
FN:102,_RNvXs_NtNtNtCs86MSqdLtxp_9flytecode8software11task_groups5testsNtB4_8TestTaskINtNtB8_5tasks7UAVTaskNtB4_9TestStateE8get_info
FN:132,_RNvNtNtNtCs86MSqdLtxp_9flytecode8software11task_groups5testss_15test_task_group
FN:106,_RNvXs_NtNtNtCs86MSqdLtxp_9flytecode8software11task_groups5testsNtB4_8TestTaskINtNtB8_5tasks7UAVTaskNtB4_9TestStateE4boot
FN:79,_RNvXs0_NtNtNtCs86MSqdLtxp_9flytecode8software11task_groups5testsNtB5_9TestStateNtNtCsiGDQiEYPR0L_4core5clone5Clone5cloneBb_
FN:112,_RNvXs_NtNtNtCs86MSqdLtxp_9flytecode8software11task_groups5testsNtB4_8TestTaskINtNtB8_5tasks7UAVTaskNtB4_9TestStateE4init
FN:49,_RNvMNtNtCs86MSqdLtxp_9flytecode8software11task_groupsINtB2_9TaskGroupNtNtB2_5tests9TestStateE6updateB6_
FN:60,_RNvMNtNtCs86MSqdLtxp_9flytecode8software11task_groupsINtB2_9TaskGroupNtNtB2_5tests9TestStateE8shutdownB6_
FN:17,_RNvMNtNtCs86MSqdLtxp_9flytecode8software11task_groupsINtB2_9TaskGroupNtNtB2_5tests9TestStateE3newB6_
FN:25,_RNvMNtNtCs86MSqdLtxp_9flytecode8software11task_groupsINtB2_9TaskGroupNtNtB2_5tests9TestStateE8add_taskB6_
FN:39,_RNvMNtNtCs86MSqdLtxp_9flytecode8software11task_groupsINtB2_9TaskGroupNtNtB2_5tests9TestStateE4initB6_
FN:29,_RNvMNtNtCs86MSqdLtxp_9flytecode8software11task_groupsINtB2_9TaskGroupNtNtB2_5tests9TestStateE4bootB6_
FN:9,_RNvXININtNtCs86MSqdLtxp_9flytecode8software11task_groupss_0pEINtB5_9TaskGrouppENtNtCsiGDQiEYPR0L_4core5clone5Clone5cloneB9_
FN:131,_RNCNvNtNtNtCs86MSqdLtxp_9flytecode8software11task_groups5tests15test_task_group0B9_
FNDA:20,_RNvXs_NtNtNtCs86MSqdLtxp_9flytecode8software11task_groups5testsNtB4_8TestTaskINtNtB8_5tasks7UAVTaskNtB4_9TestStateE6update
FNDA:2,_RNvMNtNtNtCs86MSqdLtxp_9flytecode8software11task_groups5testsNtB2_8TestTask3new
FNDA:2,_RNvXs_NtNtNtCs86MSqdLtxp_9flytecode8software11task_groups5testsNtB4_8TestTaskINtNtB8_5tasks7UAVTaskNtB4_9TestStateE8shutdown
FNDA:0,_RNvXs_NtNtNtCs86MSqdLtxp_9flytecode8software11task_groups5testsNtB4_8TestTaskINtNtB8_5tasks7UAVTaskNtB4_9TestStateE8get_info
FNDA:1,_RNvNtNtNtCs86MSqdLtxp_9flytecode8software11task_groups5testss_15test_task_group
FNDA:2,_RNvXs_NtNtNtCs86MSqdLtxp_9flytecode8software11task_groups5testsNtB4_8TestTaskINtNtB8_5tasks7UAVTaskNtB4_9TestStateE4boot
FNDA:39,_RNvXs0_NtNtNtCs86MSqdLtxp_9flytecode8software11task_groups5testsNtB5_9TestStateNtNtCsiGDQiEYPR0L_4core5clone5Clone5cloneBb_
FNDA:2,_RNvXs_NtNtNtCs86MSqdLtxp_9flytecode8software11task_groups5testsNtB4_8TestTaskINtNtB8_5tasks7UAVTaskNtB4_9TestStateE4init
FNDA:10,_RNvMNtNtCs86MSqdLtxp_9flytecode8software11task_groupsINtB2_9TaskGroupNtNtB2_5tests9TestStateE6updateB6_
FNDA:1,_RNvMNtNtCs86MSqdLtxp_9flytecode8software11task_groupsINtB2_9TaskGroupNtNtB2_5tests9TestStateE8shutdownB6_
FNDA:1,_RNvMNtNtCs86MSqdLtxp_9flytecode8software11task_groupsINtB2_9TaskGroupNtNtB2_5tests9TestStateE3newB6_
FNDA:2,_RNvMNtNtCs86MSqdLtxp_9flytecode8software11task_groupsINtB2_9TaskGroupNtNtB2_5tests9TestStateE8add_taskB6_
FNDA:1,_RNvMNtNtCs86MSqdLtxp_9flytecode8software11task_groupsINtB2_9TaskGroupNtNtB2_5tests9TestStateE4initB6_
FNDA:1,_RNvMNtNtCs86MSqdLtxp_9flytecode8software11task_groupsINtB2_9TaskGroupNtNtB2_5tests9TestStateE4bootB6_
FNDA:0,_RNvXININtNtCs86MSqdLtxp_9flytecode8software11task_groupss_0pEINtB5_9TaskGrouppENtNtCsiGDQiEYPR0L_4core5clone5Clone5cloneB9_
FNDA:1,_RNCNvNtNtNtCs86MSqdLtxp_9flytecode8software11task_groups5tests15test_task_group0B9_
FNF:16
FNH:14
DA:9,0
DA:17,1
DA:18,1
DA:19,1
DA:20,1
DA:21,1
DA:22,1
DA:23,1
DA:25,2
DA:26,2
DA:27,2
DA:29,1
DA:30,1
DA:31,3
DA:32,2
DA:33,2
DA:34,2
DA:36,1
DA:37,1
DA:39,1
DA:40,1
DA:41,3
DA:42,2
DA:43,2
DA:44,2
DA:46,1
DA:47,1
DA:49,10
DA:50,10
DA:51,30
DA:52,20
DA:53,20
DA:54,20
DA:56,10
DA:58,10
DA:60,1
DA:61,1
DA:62,3
DA:63,2
DA:64,2
DA:65,2
DA:67,1
DA:68,1
DA:79,39
DA:91,2
DA:92,2
DA:93,2
DA:94,2
DA:95,2
DA:96,2
DA:97,2
DA:98,2
DA:102,0
DA:103,0
DA:104,0
DA:106,2
DA:107,2
DA:108,2
DA:109,2
DA:110,2
DA:112,2
DA:113,2
DA:114,2
DA:115,2
DA:116,2
DA:118,20
DA:119,20
DA:120,20
DA:121,20
DA:122,20
DA:124,2
DA:125,2
DA:126,2
DA:127,2
DA:128,2
DA:131,1
DA:132,1
DA:133,1
DA:134,1
DA:135,1
DA:136,1
DA:137,1
DA:138,1
DA:139,1
DA:140,1
DA:141,1
DA:142,1
DA:143,1
DA:144,1
DA:145,1
DA:146,1
DA:147,1
DA:148,1
DA:149,1
DA:150,1
DA:151,1
DA:152,1
DA:153,1
DA:154,1
DA:155,1
DA:156,1
DA:157,1
DA:158,11
DA:159,10
DA:160,10
DA:161,1
DA:162,1
DA:163,1
DA:167,1
BRF:0
BRH:0
LF:109
LH:105
end_of_record
SF:/Users/alex/repos/victoryforphil/lil-hopps/flytecode/src/software/tasks/mod.rs
FN:53,_RNvXs_NtNtNtCs86MSqdLtxp_9flytecode8software5tasks5testsNtB4_8TestTaskINtB6_7UAVTaskNtB4_9TestStateE4boot
FN:59,_RNvXs_NtNtNtCs86MSqdLtxp_9flytecode8software5tasks5testsNtB4_8TestTaskINtB6_7UAVTaskNtB4_9TestStateE4init
FN:65,_RNvXs_NtNtNtCs86MSqdLtxp_9flytecode8software5tasks5testsNtB4_8TestTaskINtB6_7UAVTaskNtB4_9TestStateE6update
FN:38,_RNvMNtNtNtCs86MSqdLtxp_9flytecode8software5tasks5testsNtB2_8TestTask3new
FN:71,_RNvXs_NtNtNtCs86MSqdLtxp_9flytecode8software5tasks5testsNtB4_8TestTaskINtB6_7UAVTaskNtB4_9TestStateE8shutdown
FN:79,_RNvNtNtNtCs86MSqdLtxp_9flytecode8software5tasks5testss_9test_task
FN:49,_RNvXs_NtNtNtCs86MSqdLtxp_9flytecode8software5tasks5testsNtB4_8TestTaskINtB6_7UAVTaskNtB4_9TestStateE8get_info
FN:25,_RNvXs0_NtNtNtCs86MSqdLtxp_9flytecode8software5tasks5testsNtB5_9TestStateNtNtCsiGDQiEYPR0L_4core5clone5Clone5cloneBb_
FN:4,_RNvXNtNtCs86MSqdLtxp_9flytecode8software5tasksNtB2_8TaskInfoNtNtCsiGDQiEYPR0L_4core5clone5Clone5cloneB6_
FN:78,_RNCNvNtNtNtCs86MSqdLtxp_9flytecode8software5tasks5tests9test_task0B9_
FN:4,_RNvXs_NtNtCs86MSqdLtxp_9flytecode8software5tasksNtB4_8TaskInfoNtNtCsiGDQiEYPR0L_4core3fmt5Debug3fmt
FNDA:1,_RNvXs_NtNtNtCs86MSqdLtxp_9flytecode8software5tasks5testsNtB4_8TestTaskINtB6_7UAVTaskNtB4_9TestStateE4boot
FNDA:1,_RNvXs_NtNtNtCs86MSqdLtxp_9flytecode8software5tasks5testsNtB4_8TestTaskINtB6_7UAVTaskNtB4_9TestStateE4init
FNDA:10,_RNvXs_NtNtNtCs86MSqdLtxp_9flytecode8software5tasks5testsNtB4_8TestTaskINtB6_7UAVTaskNtB4_9TestStateE6update
FNDA:1,_RNvMNtNtNtCs86MSqdLtxp_9flytecode8software5tasks5testsNtB2_8TestTask3new
FNDA:1,_RNvXs_NtNtNtCs86MSqdLtxp_9flytecode8software5tasks5testsNtB4_8TestTaskINtB6_7UAVTaskNtB4_9TestStateE8shutdown
FNDA:1,_RNvNtNtNtCs86MSqdLtxp_9flytecode8software5tasks5testss_9test_task
FNDA:2,_RNvXs_NtNtNtCs86MSqdLtxp_9flytecode8software5tasks5testsNtB4_8TestTaskINtB6_7UAVTaskNtB4_9TestStateE8get_info
FNDA:13,_RNvXs0_NtNtNtCs86MSqdLtxp_9flytecode8software5tasks5testsNtB5_9TestStateNtNtCsiGDQiEYPR0L_4core5clone5Clone5cloneBb_
FNDA:2,_RNvXNtNtCs86MSqdLtxp_9flytecode8software5tasksNtB2_8TaskInfoNtNtCsiGDQiEYPR0L_4core5clone5Clone5cloneB6_
FNDA:1,_RNCNvNtNtNtCs86MSqdLtxp_9flytecode8software5tasks5tests9test_task0B9_
FNDA:0,_RNvXs_NtNtCs86MSqdLtxp_9flytecode8software5tasksNtB4_8TaskInfoNtNtCsiGDQiEYPR0L_4core3fmt5Debug3fmt
FNF:11
FNH:10
DA:4,2
DA:25,13
DA:38,1
DA:39,1
DA:40,1
DA:41,1
DA:42,1
DA:43,1
DA:44,1
DA:45,1
DA:49,2
DA:50,2
DA:51,2
DA:53,1
DA:54,1
DA:55,1
DA:56,1
DA:57,1
DA:59,1
DA:60,1
DA:61,1
DA:62,1
DA:63,1
DA:65,10
DA:66,10
DA:67,10
DA:68,10
DA:69,10
DA:71,1
DA:72,1
DA:73,1
DA:74,1
DA:75,1
DA:78,1
DA:79,1
DA:80,1
DA:81,1
DA:82,1
DA:83,1
DA:84,1
DA:85,1
DA:86,1
DA:87,1
DA:88,1
DA:89,1
DA:90,1
DA:91,1
DA:92,1
DA:93,11
DA:94,10
DA:95,10
DA:96,1
DA:97,1
DA:98,1
DA:99,1
BRF:0
BRH:0
LF:56
LH:55
end_of_record
SF:/Users/alex/repos/victoryforphil/lil-hopps/flytecode/src/uav/mission.rs
FN:2,_RNvXNtNtCs86MSqdLtxp_9flytecode3uav7missionNtB2_10UAVMissionNtNtCsiGDQiEYPR0L_4core5clone5Clone5cloneB6_
FNDA:0,_RNvXNtNtCs86MSqdLtxp_9flytecode3uav7missionNtB2_10UAVMissionNtNtCsiGDQiEYPR0L_4core5clone5Clone5cloneB6_
FNF:1
FNH:0
DA:2,0
BRF:0
BRH:0
LF:1
LH:0
end_of_record
SF:/Users/alex/repos/victoryforphil/lil-hopps/lilviz/src/main.rs
FN:1,_RNvCs108iXHfhYUv_6lilviz4main
FNDA:0,_RNvCs108iXHfhYUv_6lilviz4main
FNF:1
FNH:0
DA:1,0
DA:2,0
DA:3,0
BRF:0
BRH:0
LF:3
LH:0
end_of_record
SF:/Users/alex/repos/victoryforphil/lil-hopps/quads/basher/src/main.rs
FN:1,_RNvCsddmrVidqQmW_6basher4main
FNDA:0,_RNvCsddmrVidqQmW_6basher4main
FNF:1
FNH:0
DA:1,0
DA:2,0
DA:3,0
BRF:0
BRH:0
LF:3
LH:0
end_of_record
SF:/Users/alex/repos/victoryforphil/lil-hopps/quads/hopper/src/main.rs
FN:1,_RNvCsfngd2tCleqq_6hopper4main
FNDA:0,_RNvCsfngd2tCleqq_6hopper4main
FNF:1
FNH:0
DA:1,0
DA:2,0
DA:3,0
BRF:0
BRH:0
LF:3
LH:0
end_of_record
SF:/Users/alex/repos/victoryforphil/lil-hopps/wingman/src/types/movement.rs
FN:1,_RNvXs1_NtNtCsbHiIM3NLC8P_7wingman5types8movementNtB5_8MovementNtNtCsiGDQiEYPR0L_4core5clone5Clone5cloneB9_
FN:39,_RNCNvNtNtNtCs9x15NOX4xDL_7wingman5types8movement5tests17test_movement_new0B9_
FN:52,_RNCNvNtNtNtCs9x15NOX4xDL_7wingman5types8movement5tests18test_movement_zero0B9_
FN:61,_RNCNvNtNtNtCs9x15NOX4xDL_7wingman5types8movement5tests21test_movement_display0B9_
FN:1,_RNvXs1_NtNtCs9x15NOX4xDL_7wingman5types8movementNtB5_8MovementNtNtCsiGDQiEYPR0L_4core5clone5Clone5cloneB9_
FN:1,_RNvXs0_NtNtCs9x15NOX4xDL_7wingman5types8movementNtB5_8MovementNtNtCsiGDQiEYPR0L_4core3fmt5Debug3fmt
FN:19,_RNvMNtNtCs9x15NOX4xDL_7wingman5types8movementNtB2_8Movement4zero
FN:30,_RNvXs_NtNtCs9x15NOX4xDL_7wingman5types8movementNtB4_8MovementNtNtCsiGDQiEYPR0L_4core3fmt7Display3fmt
FN:10,_RNvMNtNtCs9x15NOX4xDL_7wingman5types8movementNtB2_8Movement3new
FN:62,_RNvNtNtNtCs9x15NOX4xDL_7wingman5types8movement5testss_21test_movement_display
FN:40,_RNvNtNtNtCs9x15NOX4xDL_7wingman5types8movement5testss_17test_movement_new
FN:53,_RNvNtNtNtCs9x15NOX4xDL_7wingman5types8movement5testss_18test_movement_zero
FNDA:0,_RNvXs1_NtNtCsbHiIM3NLC8P_7wingman5types8movementNtB5_8MovementNtNtCsiGDQiEYPR0L_4core5clone5Clone5cloneB9_
FNDA:1,_RNCNvNtNtNtCs9x15NOX4xDL_7wingman5types8movement5tests17test_movement_new0B9_
FNDA:1,_RNCNvNtNtNtCs9x15NOX4xDL_7wingman5types8movement5tests18test_movement_zero0B9_
FNDA:1,_RNCNvNtNtNtCs9x15NOX4xDL_7wingman5types8movement5tests21test_movement_display0B9_
FNDA:0,_RNvXs1_NtNtCs9x15NOX4xDL_7wingman5types8movementNtB5_8MovementNtNtCsiGDQiEYPR0L_4core5clone5Clone5cloneB9_
FNDA:0,_RNvXs0_NtNtCs9x15NOX4xDL_7wingman5types8movementNtB5_8MovementNtNtCsiGDQiEYPR0L_4core3fmt5Debug3fmt
FNDA:1,_RNvMNtNtCs9x15NOX4xDL_7wingman5types8movementNtB2_8Movement4zero
FNDA:1,_RNvXs_NtNtCs9x15NOX4xDL_7wingman5types8movementNtB4_8MovementNtNtCsiGDQiEYPR0L_4core3fmt7Display3fmt
FNDA:2,_RNvMNtNtCs9x15NOX4xDL_7wingman5types8movementNtB2_8Movement3new
FNDA:1,_RNvNtNtNtCs9x15NOX4xDL_7wingman5types8movement5testss_21test_movement_display
FNDA:1,_RNvNtNtNtCs9x15NOX4xDL_7wingman5types8movement5testss_17test_movement_new
FNDA:1,_RNvNtNtNtCs9x15NOX4xDL_7wingman5types8movement5testss_18test_movement_zero
FNF:11
FNH:9
DA:1,0
DA:10,2
DA:11,2
DA:12,2
DA:13,2
DA:14,2
DA:15,2
DA:16,2
DA:17,2
DA:19,1
DA:20,1
DA:21,1
DA:22,1
DA:23,1
DA:24,1
DA:25,1
DA:26,1
DA:30,1
DA:31,1
DA:32,1
DA:39,1
DA:40,1
DA:41,1
DA:42,1
DA:43,1
DA:44,1
DA:45,1
DA:46,1
DA:47,1
DA:48,1
DA:49,1
DA:50,1
DA:52,1
DA:53,1
DA:54,1
DA:55,1
DA:56,1
DA:57,1
DA:58,1
DA:59,1
DA:61,1
DA:62,1
DA:63,1
DA:64,1
DA:65,1
DA:66,1
DA:67,1
DA:68,1
DA:69,1
DA:70,1
BRF:0
BRH:0
LF:51
LH:49
end_of_record
SF:/Users/alex/repos/victoryforphil/lil-hopps/wingman/src/types/pose.rs
FN:1,_RNvXs1_NtNtCsbHiIM3NLC8P_7wingman5types4poseNtB5_4PoseNtNtCsiGDQiEYPR0L_4core5clone5Clone5cloneCs86MSqdLtxp_9flytecode
FN:1,_RNvXs1_NtNtCsbHiIM3NLC8P_7wingman5types4poseNtB5_4PoseNtNtCsiGDQiEYPR0L_4core5clone5Clone5cloneB9_
FN:1,_RNvXs4_NtNtCsbHiIM3NLC8P_7wingman5types4poseNtB5_4PoseNtNtCsiGDQiEYPR0L_4core3cmp9PartialEq2eqB9_
FN:1,_RNvXs0_NtNtCsbHiIM3NLC8P_7wingman5types4poseNtB5_4PoseNtNtCsiGDQiEYPR0L_4core3fmt5Debug3fmt
FN:9,_RNvXNtNtCsbHiIM3NLC8P_7wingman5types4poseNtB2_4PoseNtNtCsiGDQiEYPR0L_4core3fmt7Display3fmt
FN:16,_RNvMs_NtNtCsbHiIM3NLC8P_7wingman5types4poseNtB4_4Pose3new
FN:25,_RNvMs_NtNtCsbHiIM3NLC8P_7wingman5types4poseNtB4_4Pose4zero
FN:1,_RNvXs1_NtNtCs9x15NOX4xDL_7wingman5types4poseNtB5_4PoseNtNtCsiGDQiEYPR0L_4core5clone5Clone5cloneB9_
FN:1,_RNvXs0_NtNtCs9x15NOX4xDL_7wingman5types4poseNtB5_4PoseNtNtCsiGDQiEYPR0L_4core3fmt5Debug3fmt
FN:1,_RNvXs4_NtNtCs9x15NOX4xDL_7wingman5types4poseNtB5_4PoseNtNtCsiGDQiEYPR0L_4core3cmp9PartialEq2eqB9_
FN:9,_RNvXNtNtCs9x15NOX4xDL_7wingman5types4poseNtB2_4PoseNtNtCsiGDQiEYPR0L_4core3fmt7Display3fmt
FN:16,_RNvMs_NtNtCs9x15NOX4xDL_7wingman5types4poseNtB4_4Pose3new
FN:25,_RNvMs_NtNtCs9x15NOX4xDL_7wingman5types4poseNtB4_4Pose4zero
FN:54,_RNvNtNtNtCs9x15NOX4xDL_7wingman5types4pose5testss_17test_pose_display
FN:38,_RNvNtNtNtCs9x15NOX4xDL_7wingman5types4pose5testss_13test_pose_new
FN:47,_RNvNtNtNtCs9x15NOX4xDL_7wingman5types4pose5testss_14test_pose_zero
FN:37,_RNCNvNtNtNtCs9x15NOX4xDL_7wingman5types4pose5tests13test_pose_new0B9_
FN:46,_RNCNvNtNtNtCs9x15NOX4xDL_7wingman5types4pose5tests14test_pose_zero0B9_
FN:53,_RNCNvNtNtNtCs9x15NOX4xDL_7wingman5types4pose5tests17test_pose_display0B9_
FNDA:1,_RNvXs1_NtNtCsbHiIM3NLC8P_7wingman5types4poseNtB5_4PoseNtNtCsiGDQiEYPR0L_4core5clone5Clone5cloneCs86MSqdLtxp_9flytecode
FNDA:0,_RNvXs1_NtNtCsbHiIM3NLC8P_7wingman5types4poseNtB5_4PoseNtNtCsiGDQiEYPR0L_4core5clone5Clone5cloneB9_
FNDA:0,_RNvXs4_NtNtCsbHiIM3NLC8P_7wingman5types4poseNtB5_4PoseNtNtCsiGDQiEYPR0L_4core3cmp9PartialEq2eqB9_
FNDA:0,_RNvXs0_NtNtCsbHiIM3NLC8P_7wingman5types4poseNtB5_4PoseNtNtCsiGDQiEYPR0L_4core3fmt5Debug3fmt
FNDA:0,_RNvXNtNtCsbHiIM3NLC8P_7wingman5types4poseNtB2_4PoseNtNtCsiGDQiEYPR0L_4core3fmt7Display3fmt
FNDA:1,_RNvMs_NtNtCsbHiIM3NLC8P_7wingman5types4poseNtB4_4Pose3new
FNDA:0,_RNvMs_NtNtCsbHiIM3NLC8P_7wingman5types4poseNtB4_4Pose4zero
FNDA:0,_RNvXs1_NtNtCs9x15NOX4xDL_7wingman5types4poseNtB5_4PoseNtNtCsiGDQiEYPR0L_4core5clone5Clone5cloneB9_
FNDA:0,_RNvXs0_NtNtCs9x15NOX4xDL_7wingman5types4poseNtB5_4PoseNtNtCsiGDQiEYPR0L_4core3fmt5Debug3fmt
FNDA:0,_RNvXs4_NtNtCs9x15NOX4xDL_7wingman5types4poseNtB5_4PoseNtNtCsiGDQiEYPR0L_4core3cmp9PartialEq2eqB9_
FNDA:1,_RNvXNtNtCs9x15NOX4xDL_7wingman5types4poseNtB2_4PoseNtNtCsiGDQiEYPR0L_4core3fmt7Display3fmt
FNDA:2,_RNvMs_NtNtCs9x15NOX4xDL_7wingman5types4poseNtB4_4Pose3new
FNDA:1,_RNvMs_NtNtCs9x15NOX4xDL_7wingman5types4poseNtB4_4Pose4zero
FNDA:1,_RNvNtNtNtCs9x15NOX4xDL_7wingman5types4pose5testss_17test_pose_display
FNDA:1,_RNvNtNtNtCs9x15NOX4xDL_7wingman5types4pose5testss_13test_pose_new
FNDA:1,_RNvNtNtNtCs9x15NOX4xDL_7wingman5types4pose5testss_14test_pose_zero
FNDA:1,_RNCNvNtNtNtCs9x15NOX4xDL_7wingman5types4pose5tests13test_pose_new0B9_
FNDA:1,_RNCNvNtNtNtCs9x15NOX4xDL_7wingman5types4pose5tests14test_pose_zero0B9_
FNDA:1,_RNCNvNtNtNtCs9x15NOX4xDL_7wingman5types4pose5tests17test_pose_display0B9_
FNF:12
FNH:10
DA:1,1
DA:9,1
DA:10,1
DA:11,1
DA:12,1
DA:16,3
DA:17,3
DA:18,3
DA:19,3
DA:20,3
DA:21,3
DA:25,1
DA:26,1
DA:27,1
DA:28,1
DA:29,1
DA:30,1
DA:37,1
DA:38,1
DA:39,1
DA:40,1
DA:41,1
DA:42,1
DA:43,1
DA:44,1
DA:46,1
DA:47,1
DA:48,1
DA:49,1
DA:50,1
DA:51,1
DA:53,1
DA:54,1
DA:55,1
DA:56,1
DA:57,1
DA:58,1
DA:59,1
DA:60,1
BRF:0
BRH:0
LF:41
LH:39
end_of_record